	.module myGRAPHICS.C
	.area code(ram, con, rel)
	.area lit(rom, con, rel)
_TEXT35::
	.byte 0,0
	.byte 0,0
	.byte 0
	.byte 'D,'D
	.byte 'D,0
	.byte 'D
	.byte 170,170
	.byte 0,0
	.byte 0
	.byte 170,238
	.byte 170,238
	.byte 170
	.byte 'f,204
	.byte 204,'f
	.byte 238
	.byte 170,34
	.byte 'D,136
	.byte 170
	.byte 'D,170
	.byte 'D,170
	.byte 'f
	.byte 'D,'D
	.byte 0,0
	.byte 0
	.byte 'D,136
	.byte 136,136
	.byte 'D
	.byte 'D,34
	.byte 34,34
	.byte 'D
	.byte 0,170
	.byte 'D,170
	.byte 0
	.byte 0,'D
	.byte 238,'D
	.byte 0
	.byte 0,0
	.byte 0,'D
	.byte 136
	.byte 0,0
	.byte 238,0
	.byte 0
	.byte 0,0
	.byte 0,0
	.byte 'D
	.byte 34,34
	.byte 'D,136
	.byte 136
	.byte 238,170
	.byte 170,170
	.byte 238
	.byte 'D,204
	.byte 'D,'D
	.byte 238
	.byte 238,34
	.byte 238,136
	.byte 238
	.byte 238,34
	.byte 238,34
	.byte 238
	.byte 170,170
	.byte 238,34
	.byte 34
	.byte 238,136
	.byte 238,34
	.byte 238
	.byte 204,136
	.byte 238,170
	.byte 238
	.byte 238,34
	.byte 'D,136
	.byte 136
	.byte 238,170
	.byte 238,170
	.byte 238
	.byte 238,170
	.byte 238,34
	.byte 'f
	.byte 0,'D
	.byte 0,'D
	.byte 0
	.byte 0,'D
	.byte 0,'D
	.byte 136
	.byte 34,'D
	.byte 136,'D
	.byte 34
	.byte 0,238
	.byte 0,238
	.byte 0
	.byte 136,'D
	.byte 34,'D
	.byte 136
	.byte 204,34
	.byte 'f,0
	.byte 'D
	.byte 'D,170
	.byte 238,136
	.byte 'f
	.byte 238,170
	.byte 238,170
	.byte 170
	.byte 204,170
	.byte 238,170
	.byte 204
	.byte 238,136
	.byte 136,136
	.byte 238
	.byte 204,170
	.byte 170,170
	.byte 204
	.byte 238,136
	.byte 238,136
	.byte 238
	.byte 238,136
	.byte 238,136
	.byte 136
	.byte 238,136
	.byte 136,170
	.byte 238
	.byte 170,170
	.byte 238,170
	.byte 170
	.byte 238,'D
	.byte 'D,'D
	.byte 238
	.byte 34,34
	.byte 34,170
	.byte 238
	.byte 136,170
	.byte 204,204
	.byte 170
	.byte 136,136
	.byte 136,136
	.byte 238
	.byte 170,238
	.byte 238,170
	.byte 170
	.byte 0,204
	.byte 170,170
	.byte 170
	.byte 'D,170
	.byte 170,170
	.byte 'D
	.byte 238,170
	.byte 238,136
	.byte 136
	.byte 'D,170
	.byte 170,238
	.byte 'f
	.byte 238,170
	.byte 204,238
	.byte 170
	.byte 238,136
	.byte 238,34
	.byte 238
	.byte 238,'D
	.byte 'D,'D
	.byte 'D
	.byte 170,170
	.byte 170,170
	.byte 238
	.byte 170,170
	.byte 170,170
	.byte 'D
	.byte 170,170
	.byte 238,238
	.byte 170
	.byte 0,170
	.byte 'D,'D
	.byte 170
	.byte 170,170
	.byte 'D,'D
	.byte 'D
	.byte 238,34
	.byte 'D,136
	.byte 238
	.byte 238,136
	.byte 136,136
	.byte 238
	.byte 136,136
	.byte 'D,34
	.byte 34
	.byte 'D,170
	.byte 0,0
	.byte 0
	.byte 0,0
	.byte 0,0
	.byte 238
	.byte 136,'D
	.byte 0,0
	.byte 0
	.byte 0,0
	.byte 0,0
	.byte 0
	.byte 0,'D
	.byte 170,170
	.byte 'f
	.byte 136,204
	.byte 170,170
	.byte 204
	.byte 0,'f
	.byte 136,136
	.byte 'f
	.byte 34,'f
	.byte 170,170
	.byte 'f
	.byte 0,'D
	.byte 170,204
	.byte 'f
	.byte 'f,'D
	.byte 238,'D
	.byte 'D
	.byte 0,'D
	.byte 170,'f
	.byte 204
	.byte 136,204
	.byte 170,170
	.byte 170
	.byte 'D,0
	.byte 'D,'D
	.byte 'D
	.byte 'D,0
	.byte 'D,'D
	.byte 136
	.byte 136,136
	.byte 170,204
	.byte 170
	.byte 'D,'D
	.byte 'D,'D
	.byte 'D
	.byte 0,238
	.byte 238,170
	.byte 170
	.byte 0,204
	.byte 170,170
	.byte 170
	.byte 0,'D
	.byte 170,170
	.byte 'D
	.byte 0,204
	.byte 170,204
	.byte 136
	.byte 0,'f
	.byte 170,'f
	.byte 34
	.byte 0,136
	.byte 238,136
	.byte 136
	.byte 0,'f
	.byte 204,34
	.byte 204
	.byte 'D,238
	.byte 'D,'D
	.byte 'D
	.byte 0,170
	.byte 170,170
	.byte 'D
	.byte 0,170
	.byte 170,'D
	.byte 'D
	.byte 0,170
	.byte 170,238
	.byte 170
	.byte 0,170
	.byte 'D,'D
	.byte 170
	.byte 0,170
	.byte 170,'f
	.byte 204
	.byte 0,238
	.byte 'f,204
	.byte 238
	.byte 34,'D
	.byte 204,'D
	.byte 34
	.byte 'D,'D
	.byte 'D,'D
	.byte 'D
	.byte 136,'D
	.byte 'f,'D
	.byte 136
	.byte 0,204
	.byte 170,0
	.byte 0
	.byte 0,0,0,0,0
	.dbfile E:\avr\iccavrproject\µç³ØÈÝÁ¿²âÊÔ\myGRAPHICS.C
	.dbsym e TEXT35 _TEXT35 A[480:96:5]kc
_FONT::
	.byte 0,0
	.byte 0,0
	.byte 0
	.byte 0,0
	.byte 95,0
	.byte 0
	.byte 0,3
	.byte 0,3
	.byte 0
	.byte 20,62
	.byte 20,62
	.byte 20
	.byte 36,42
	.byte 127,42
	.byte 18
	.byte 'C,51
	.byte 8,'f
	.byte 'a
	.byte 54,'I
	.byte 'U,34
	.byte 'P
	.byte 0,5
	.byte 3,0
	.byte 0
	.byte 0,28
	.byte 34,'A
	.byte 0
	.byte 0,'A
	.byte 34,28
	.byte 0
	.byte 20,8
	.byte 62,8
	.byte 20
	.byte 8,8
	.byte 62,8
	.byte 8
	.byte 0,'P
	.byte 48,0
	.byte 0
	.byte 8,8
	.byte 8,8
	.byte 8
	.byte 0,96
	.byte 96,0
	.byte 0
	.byte 32,16
	.byte 8,4
	.byte 2
	.byte 62,'Q
	.byte 'I,'E
	.byte 62
	.byte 0,4
	.byte 2,127
	.byte 0
	.byte 'B,'a
	.byte 'Q,'I
	.byte 'F
	.byte 34,'A
	.byte 'I,'I
	.byte 54
	.byte 24,20
	.byte 18,127
	.byte 16
	.byte 39,'E
	.byte 'E,'E
	.byte 57
	.byte 62,'I
	.byte 'I,'I
	.byte 50
	.byte 1,1
	.byte 'q,9
	.byte 7
	.byte 54,'I
	.byte 'I,'I
	.byte 54
	.byte 38,'I
	.byte 'I,'I
	.byte 62
	.byte 0,54
	.byte 54,0
	.byte 0
	.byte 0,'V
	.byte 54,0
	.byte 0
	.byte 8,20
	.byte 34,'A
	.byte 0
	.byte 20,20
	.byte 20,20
	.byte 20
	.byte 0,'A
	.byte 34,20
	.byte 8
	.byte 2,1
	.byte 'Q,9
	.byte 6
	.byte 62,'A
	.byte 'Y,'U
	.byte 94
	.byte 126,9
	.byte 9,9
	.byte 126
	.byte 127,'I
	.byte 'I,'I
	.byte 54
	.byte 62,'A
	.byte 'A,'A
	.byte 34
	.byte 127,'A
	.byte 'A,'A
	.byte 62
	.byte 127,'I
	.byte 'I,'I
	.byte 'A
	.byte 127,9
	.byte 9,9
	.byte 1
	.byte 62,'A
	.byte 'A,'I
	.byte 58
	.byte 127,8
	.byte 8,8
	.byte 127
	.byte 0,'A
	.byte 127,'A
	.byte 0
	.byte 48,64
	.byte 64,64
	.byte 63
	.byte 127,8
	.byte 20,34
	.byte 'A
	.byte 127,64
	.byte 64,64
	.byte 64
	.byte 127,2
	.byte 12,2
	.byte 127
	.byte 127,2
	.byte 4,8
	.byte 127
	.byte 62,'A
	.byte 'A,'A
	.byte 62
	.byte 127,9
	.byte 9,9
	.byte 6
	.byte 30,33
	.byte 33,33
	.byte 94
	.byte 127,9
	.byte 9,9
	.byte 'v
	.dbsym e FONT _FONT A[255:51:5]kc
_FONT2::
	.byte 38,'I
	.byte 'I,'I
	.byte 50
	.byte 1,1
	.byte 127,1
	.byte 1
	.byte 63,64
	.byte 64,64
	.byte 63
	.byte 31,32
	.byte 64,32
	.byte 31
	.byte 127,32
	.byte 16,32
	.byte 127
	.byte 'A,34
	.byte 28,34
	.byte 'A
	.byte 7,8
	.byte 'p,8
	.byte 7
	.byte 'a,'Q
	.byte 'I,'E
	.byte 'C
	.byte 0,127
	.byte 'A,0
	.byte 0
	.byte 2,4
	.byte 8,16
	.byte 32
	.byte 4,2
	.byte 1,2
	.byte 4
	.byte 64,64
	.byte 64,64
	.byte 64
	.byte 0,1
	.byte 2,4
	.byte 0
	.byte 0,0
	.byte 0,0
	.byte 0
	.byte 32,'T
	.byte 'T,'T
	.byte 'x
	.byte 127,'D
	.byte 'D,'D
	.byte 56
	.byte 56,'D
	.byte 'D,'D
	.byte 'D
	.byte 56,'D
	.byte 'D,'D
	.byte 127
	.byte 56,'T
	.byte 'T,'T
	.byte 24
	.byte 4,4
	.byte 126,5
	.byte 5
	.byte 8,'T
	.byte 'T,'T
	.byte 60
	.byte 127,8
	.byte 4,4
	.byte 'x
	.byte 0,'D
	.byte 125,64
	.byte 0
	.byte 32,64
	.byte 'D,61
	.byte 0
	.byte 127,16
	.byte 40,'D
	.byte 0
	.byte 0,'A
	.byte 127,64
	.byte 0
	.byte 124,4
	.byte 'x,4
	.byte 'x
	.byte 124,8
	.byte 4,4
	.byte 'x
	.byte 56,'D
	.byte 'D,'D
	.byte 56
	.byte 124,20
	.byte 20,20
	.byte 8
	.byte 8,20
	.byte 20,20
	.byte 124
	.byte 0,124
	.byte 8,4
	.byte 4
	.byte 'H,'T
	.byte 'T,'T
	.byte 32
	.byte 4,4
	.byte 63,'D
	.byte 'D
	.byte 60,64
	.byte 64,32
	.byte 124
	.byte 28,32
	.byte 64,32
	.byte 28
	.byte 60,64
	.byte 48,64
	.byte 60
	.byte 'D,40
	.byte 16,40
	.byte 'D
	.byte 12,'P
	.byte 'P,'P
	.byte 60
	.byte 'D,'d
	.byte 'T,'L
	.byte 'D
	.byte 0,8
	.byte 54,'A
	.byte 'A
	.byte 0,0
	.byte 127,0
	.byte 0
	.byte 'A,'A
	.byte 54,8
	.byte 0
	.byte 2,1
	.byte 2,4
	.byte 2
	.byte 0,0,0,0,0
	.dbsym e FONT2 _FONT2 A[225:45:5]kc
	.area data(ram, con, rel)
	.dbfile E:\avr\iccavrproject\µç³ØÈÝÁ¿²âÊÔ\myGRAPHICS.C
	.area text(rom, con, rel)
	.dbfile E:\avr\iccavrproject\µç³ØÈÝÁ¿²âÊÔ\myGRAPHICS.C
	.dbfunc e glcd_line _glcd_line fV
;           diff -> y+1
;           addy -> R20
;           addx -> y+3
;             dx -> R10,R11
;             dy -> R12,R13
;              i -> R14
;              P -> R22,R23
;          color -> y+22
;             y2 -> y+20
;             x2 -> y+18
;             y1 -> y+16
;             x1 -> y+14
	.even
_glcd_line::
	xcall push_arg4
	xcall push_gset5
	sbiw R28,4
	.dbline -1
	.dbline 301
; /////////////////////////////////////////////////////////////////////////
; ////                          graphics.c                             ////
; ////                                                                 ////
; ////   This file contains functions to draw lines, rectangles, bars, ////
; ////   circles and text to a display. A function which draws a       ////
; ////   single pixel must be defined before calling the functions in  ////
; ////   this file. Call it glcd_pixel(x, y, color) where x is the     ////
; ////   horizontal coordinate, y is the vertical coordinate, and      ////
; ////   color is 1 bit to turn the pixel on or off.                   ////
; ////                                                                 ////
; ////   * Note: (0, 0) is treated as the upper left corner            ////
; ////                                                                 ////
; /////////////////////////////////////////////////////////////////////////
; ////                                                                 ////
; ////  glcd_line(x1, y1, x2, y2, color)                               ////
; ////     * Draws a line from the first point to the second point     ////
; ////       with the given color                                      ////
; ////       - color can be ON or OFF                                  ////
; ////                                                                 ////
; ////  glcd_rect(x1, y1, x2, y2, fill, color)                         ////
; ////     * Draws a rectangle with one corner at point (x1,y1) and    ////
; ////       the other corner at point (x2,y2)                         ////
; ////       - fill can be YES or NO                                   ////
; ////       - color can be ON or OFF                                  ////
; ////                                                                 ////
; ////  glcd_bar(x1, y1, x2, y2, width, color)                         ////
; ////     * Draws a bar (wide line) from the first point to the       ////
; ////       second point                                              ////
; ////       - width is the number of pixels wide                      ////
; ////       - color is ON or OFF                                      ////
; ////                                                                 ////
; ////  glcd_circle(x, y, radius, fill, color)                         ////
; ////     * Draws a circle with center at (x,y)                       ////
; ////       - fill can be YES or NO                                   ////
; ////       - color can be ON or OFF                                  ////
; ////                                                                 ////
; ////  glcd_text57(x, y, textptr, size, color)                        ////
; ////     * Write the null terminated text pointed to by textptr with ////
; ////       the upper left coordinate of the first character at (x,y) ////
; ////       Characters are 5 pixels wide and 7 pixels tall            ////
; ////       - size is an integer that scales the size of the text     ////
; ////       - color is ON or OFF                                      ////
; ////     * Note - This function wraps characters to the next line    ////
; ////              use #define GLCD_WIDTH to specify a display width  ////
; ////                                                                 ////
; /////////////////////////////////////////////////////////////////////////
; ////        (C) Copyright 1996, 2004 Custom Computer Services        ////
; //// This source code may only be used by licensed users of the CCS  ////
; //// C compiler.  This source code may only be distributed to other  ////
; //// licensed users of the CCS C compiler.  No other use,            ////
; //// reproduction or distribution is permitted without written       ////
; //// permission.  Derivative programs created using this software    ////
; //// in object code form are not restricted in any way.              ////
; /////////////////////////////////////////////////////////////////////////
; #include "math.h"
; #include "mzl05.h"
; #include "myGRAPHICS.h"
; 
; /////////////////////////////////////////////////////////////////////////
; #ifndef GRAPHICS_DRAWING_FUNCTIONS
; #define GRAPHICS_DRAWING_FUNCTIONS
; #endif
; /////////////////////////////////////////////////////////////////////////
; 
; 
; /////////////////////////////////////////////////////////////////////////
; #ifndef ON
; #define ON  1
; #endif
; 
; #ifndef OFF
; #define OFF 0
; #endif
; 
; #ifndef YES
; #define YES 1
; #endif
; 
; #ifndef NO
; #define NO  0
; #endif
; /////////////////////////////////////////////////////////////////////////
; //// Defines a 3x5 font
; ////3x5 Font packed two per definition
; /////////////////////////////////////////////////////////////////////////
; #pragma data:code
; const unsigned char TEXT35[96][5]={
;    0b00000000,   0b00000000,   0b00000000,   0b00000000,   0b00000000, //SPACE
;    0b01000100,   0b01000100,   0b01000100,   0b00000000,   0b01000100, //!
;    0b10101010,   0b10101010,   0b00000000,   0b00000000,   0b00000000, //"
;    0b10101010,   0b11101110,   0b10101010,   0b11101110,   0b10101010, //#
;    0b01100110,   0b11001100,   0b11001100,   0b01100110,   0b11101110, //$
;    0b10101010,   0b00100010,   0b01000100,   0b10001000,   0b10101010, //%
;    0b01000100,   0b10101010,   0b01000100,   0b10101010,   0b01100110, //&
;    0b01000100,   0b01000100,   0b00000000,   0b00000000,   0b00000000, //'
;    0b01000100,   0b10001000,   0b10001000,   0b10001000,   0b01000100, //(
;    0b01000100,   0b00100010,   0b00100010,   0b00100010,   0b01000100, //)
;    0b00000000,   0b10101010,   0b01000100,   0b10101010,   0b00000000, //*
;    0b00000000,   0b01000100,   0b11101110,   0b01000100,   0b00000000, //+
;    0b00000000,   0b00000000,   0b00000000,   0b01000100,   0b10001000, //,
;    0b00000000,   0b00000000,   0b11101110,   0b00000000,   0b00000000, //-
;    0b00000000,   0b00000000,   0b00000000,   0b00000000,   0b01000100, //.
;    0b00100010,   0b00100010,   0b01000100,   0b10001000,   0b10001000, ///
;    0b11101110,   0b10101010,   0b10101010,   0b10101010,   0b11101110, //0
;    0b01000100,   0b11001100,   0b01000100,   0b01000100,   0b11101110, //1
;    0b11101110,   0b00100010,   0b11101110,   0b10001000,   0b11101110, //2
;    0b11101110,   0b00100010,   0b11101110,   0b00100010,   0b11101110, //3
;    0b10101010,   0b10101010,   0b11101110,   0b00100010,   0b00100010, //4
;    0b11101110,   0b10001000,   0b11101110,   0b00100010,   0b11101110, //5
;    0b11001100,   0b10001000,   0b11101110,   0b10101010,   0b11101110, //6
;    0b11101110,   0b00100010,   0b01000100,   0b10001000,   0b10001000, //7
;    0b11101110,   0b10101010,   0b11101110,   0b10101010,   0b11101110, //8
;    0b11101110,   0b10101010,   0b11101110,   0b00100010,   0b01100110, //9
;    0b00000000,   0b01000100,   0b00000000,   0b01000100,   0b00000000, //:
;    0b00000000,   0b01000100,   0b00000000,   0b01000100,   0b10001000, //;
;    0b00100010,   0b01000100,   0b10001000,   0b01000100,   0b00100010, //<
;    0b00000000,   0b11101110,   0b00000000,   0b11101110,   0b00000000, //=
;    0b10001000,   0b01000100,   0b00100010,   0b01000100,   0b10001000, //>
;    0b11001100,   0b00100010,   0b01100110,   0b00000000,   0b01000100, //?
;    0b01000100,   0b10101010,   0b11101110,   0b10001000,   0b01100110, //@
;    0b11101110,   0b10101010,   0b11101110,   0b10101010,   0b10101010, //A
;    0b11001100,   0b10101010,   0b11101110,   0b10101010,   0b11001100, //B
;    0b11101110,   0b10001000,   0b10001000,   0b10001000,   0b11101110, //C
;    0b11001100,   0b10101010,   0b10101010,   0b10101010,   0b11001100, //D
;    0b11101110,   0b10001000,   0b11101110,   0b10001000,   0b11101110, //E
;    0b11101110,   0b10001000,   0b11101110,   0b10001000,   0b10001000, //F
;    0b11101110,   0b10001000,   0b10001000,   0b10101010,   0b11101110, //G
;    0b10101010,   0b10101010,   0b11101110,   0b10101010,   0b10101010, //H
;    0b11101110,   0b01000100,   0b01000100,   0b01000100,   0b11101110, //I
;    0b00100010,   0b00100010,   0b00100010,   0b10101010,   0b11101110, //J
;    0b10001000,   0b10101010,   0b11001100,   0b11001100,   0b10101010, //K
;    0b10001000,   0b10001000,   0b10001000,   0b10001000,   0b11101110, //L
;    0b10101010,   0b11101110,   0b11101110,   0b10101010,   0b10101010, //M
;    0b00000000,   0b11001100,   0b10101010,   0b10101010,   0b10101010, //N
;    0b01000100,   0b10101010,   0b10101010,   0b10101010,   0b01000100, //O
;    0b11101110,   0b10101010,   0b11101110,   0b10001000,   0b10001000, //P
;    0b01000100,   0b10101010,   0b10101010,   0b11101110,   0b01100110, //Q
;    0b11101110,   0b10101010,   0b11001100,   0b11101110,   0b10101010, //R
;    0b11101110,   0b10001000,   0b11101110,   0b00100010,   0b11101110, //S
;    0b11101110,   0b01000100,   0b01000100,   0b01000100,   0b01000100, //T
;    0b10101010,   0b10101010,   0b10101010,   0b10101010,   0b11101110, //U
;    0b10101010,   0b10101010,   0b10101010,   0b10101010,   0b01000100, //V
;    0b10101010,   0b10101010,   0b11101110,   0b11101110,   0b10101010, //W
;    0b00000000,   0b10101010,   0b01000100,   0b01000100,   0b10101010, //X
;    0b10101010,   0b10101010,   0b01000100,   0b01000100,   0b01000100, //Y
;    0b11101110,   0b00100010,   0b01000100,   0b10001000,   0b11101110, //Z
;    0b11101110,   0b10001000,   0b10001000,   0b10001000,   0b11101110, //[
;    0b10001000,   0b10001000,   0b01000100,   0b00100010,   0b00100010, //\
;    0b11101110,   0b00100010,   0b00100010,   0b00100010,   0b11101110, //]
;    0b01000100,   0b10101010,   0b00000000,   0b00000000,   0b00000000, //^
;    0b00000000,   0b00000000,   0b00000000,   0b00000000,   0b11101110, //_
;    0b10001000,   0b01000100,   0b00000000,   0b00000000,   0b00000000, //`
;    0b00000000,   0b00000000,   0b00000000,   0b00000000,   0b00000000, //SPACE
;    0b00000000, 0b01000100, 0b10101010, 0b10101010, 0b01100110, //a
;    0b10001000, 0b11001100, 0b10101010, 0b10101010, 0b11001100, //b
;    0b00000000,   0b01100110, 0b10001000, 0b10001000, 0b01100110, //c
;    0b00100010,   0b01100110, 0b10101010, 0b10101010, 0b01100110, //d
;    0b00000000, 0b01000100, 0b10101010, 0b11001100, 0b01100110, //e
;    0b01100110,   0b01000100, 0b11101110, 0b01000100, 0b01000100, //f
;    0b00000000, 0b01000100, 0b10101010, 0b01100110, 0b11001100, //g
;    0b10001000, 0b11001100, 0b10101010, 0b10101010, 0b10101010, //h
;    0b01000100,   0b00000000, 0b01000100, 0b01000100, 0b01000100, //i
;    0b01000100, 0b00000000, 0b01000100, 0b01000100, 0b10001000, //j
;    0b10001000,   0b10001000, 0b10101010, 0b11001100, 0b10101010, //k
;    0b01000100,   0b01000100, 0b01000100, 0b01000100, 0b01000100, //l
;    0b00000000,   0b11101110, 0b11101110, 0b10101010, 0b10101010, //m
;    0b00000000,   0b11001100, 0b10101010, 0b10101010, 0b10101010, //n
;    0b00000000,   0b01000100, 0b10101010, 0b10101010, 0b01000100, //o
;    0b00000000,   0b11001100, 0b10101010, 0b11001100, 0b10001000, //p
;    0b00000000,   0b01100110, 0b10101010, 0b01100110, 0b00100010, //q
;    0b00000000,   0b10001000, 0b11101110, 0b10001000, 0b10001000, //r
;    0b00000000, 0b01100110, 0b11001100, 0b00100010, 0b11001100, //s
;    0b01000100,   0b11101110, 0b01000100, 0b01000100, 0b01000100, //t
;    0b00000000, 0b10101010, 0b10101010, 0b10101010, 0b01000100, //u
;    0b00000000, 0b10101010, 0b10101010, 0b01000100, 0b01000100, //v
;    0b00000000,   0b10101010, 0b10101010, 0b11101110, 0b10101010, //w
;    0b00000000,   0b10101010, 0b01000100, 0b01000100, 0b10101010, //x
;    0b00000000,   0b10101010, 0b10101010, 0b01100110, 0b11001100, //y
;    0b00000000, 0b11101110, 0b01100110, 0b11001100, 0b11101110, //z
;    0b00100010,   0b01000100,   0b11001100,   0b01000100,   0b00100010, //{
;    0b01000100,   0b01000100,   0b01000100,   0b01000100,   0b01000100, //|
;    0b10001000,   0b01000100,   0b01100110,   0b01000100,   0b10001000, //}
;    0b00000000,   0b11001100,   0b10101010,   0b00000000,   0b00000000  //~
;    };
; 
; /////////////////////////////////////////////////////////////////////////
; //// Defines a 5x7 font
; /////////////////////////////////////////////////////////////////////////
; const unsigned char FONT[51][5] ={0x00, 0x00, 0x00, 0x00, 0x00, // SPACE
;                          0x00, 0x00, 0x5F, 0x00, 0x00, // !
;                          0x00, 0x03, 0x00, 0x03, 0x00, // "
;                          0x14, 0x3E, 0x14, 0x3E, 0x14, // #
;                          0x24, 0x2A, 0x7F, 0x2A, 0x12, // $
;                          0x43, 0x33, 0x08, 0x66, 0x61, // %
;                          0x36, 0x49, 0x55, 0x22, 0x50, // &
;                          0x00, 0x05, 0x03, 0x00, 0x00, // '
;                          0x00, 0x1C, 0x22, 0x41, 0x00, // (
;                          0x00, 0x41, 0x22, 0x1C, 0x00, // )
;                          0x14, 0x08, 0x3E, 0x08, 0x14, // *
;                          0x08, 0x08, 0x3E, 0x08, 0x08, // +
;                          0x00, 0x50, 0x30, 0x00, 0x00, // ,
;                          0x08, 0x08, 0x08, 0x08, 0x08, // -
;                          0x00, 0x60, 0x60, 0x00, 0x00, // .
;                          0x20, 0x10, 0x08, 0x04, 0x02, // /
;                          0x3E, 0x51, 0x49, 0x45, 0x3E, // 0
;                          0x00, 0x04, 0x02, 0x7F, 0x00, // 1
;                          0x42, 0x61, 0x51, 0x49, 0x46, // 2
;                          0x22, 0x41, 0x49, 0x49, 0x36, // 3
;                          0x18, 0x14, 0x12, 0x7F, 0x10, // 4
;                          0x27, 0x45, 0x45, 0x45, 0x39, // 5
;                          0x3E, 0x49, 0x49, 0x49, 0x32, // 6
;                          0x01, 0x01, 0x71, 0x09, 0x07, // 7
;                          0x36, 0x49, 0x49, 0x49, 0x36, // 8
;                          0x26, 0x49, 0x49, 0x49, 0x3E, // 9
;                          0x00, 0x36, 0x36, 0x00, 0x00, // :
;                          0x00, 0x56, 0x36, 0x00, 0x00, // ;
;                          0x08, 0x14, 0x22, 0x41, 0x00, // <
;                          0x14, 0x14, 0x14, 0x14, 0x14, // =
;                          0x00, 0x41, 0x22, 0x14, 0x08, // >
;                          0x02, 0x01, 0x51, 0x09, 0x06, // ?
;                          0x3E, 0x41, 0x59, 0x55, 0x5E, // @
;                          0x7E, 0x09, 0x09, 0x09, 0x7E, // A
;                          0x7F, 0x49, 0x49, 0x49, 0x36, // B
;                          0x3E, 0x41, 0x41, 0x41, 0x22, // C
;                          0x7F, 0x41, 0x41, 0x41, 0x3E, // D
;                          0x7F, 0x49, 0x49, 0x49, 0x41, // E
;                          0x7F, 0x09, 0x09, 0x09, 0x01, // F
;                          0x3E, 0x41, 0x41, 0x49, 0x3A, // G
;                          0x7F, 0x08, 0x08, 0x08, 0x7F, // H
;                          0x00, 0x41, 0x7F, 0x41, 0x00, // I
;                          0x30, 0x40, 0x40, 0x40, 0x3F, // J
;                          0x7F, 0x08, 0x14, 0x22, 0x41, // K
;                          0x7F, 0x40, 0x40, 0x40, 0x40, // L
;                          0x7F, 0x02, 0x0C, 0x02, 0x7F, // M
;                          0x7F, 0x02, 0x04, 0x08, 0x7F, // N
;                          0x3E, 0x41, 0x41, 0x41, 0x3E, // O
;                          0x7F, 0x09, 0x09, 0x09, 0x06, // P
;                          0x1E, 0x21, 0x21, 0x21, 0x5E, // Q
;                          0x7F, 0x09, 0x09, 0x09, 0x76};// R
; 
; const unsigned char FONT2[45][5]={0x26, 0x49, 0x49, 0x49, 0x32, // S
;                          0x01, 0x01, 0x7F, 0x01, 0x01, // T
;                          0x3F, 0x40, 0x40, 0x40, 0x3F, // U
;                          0x1F, 0x20, 0x40, 0x20, 0x1F, // V
;                          0x7F, 0x20, 0x10, 0x20, 0x7F, // W
;                          0x41, 0x22, 0x1C, 0x22, 0x41, // X
;                          0x07, 0x08, 0x70, 0x08, 0x07, // Y
;                          0x61, 0x51, 0x49, 0x45, 0x43, // Z
;                          0x00, 0x7F, 0x41, 0x00, 0x00, // [
;                          0x02, 0x04, 0x08, 0x10, 0x20, // \
;                          0x00, 0x00, 0x41, 0x7F, 0x00, // ]
;                          0x04, 0x02, 0x01, 0x02, 0x04, // ^
;                          0x40, 0x40, 0x40, 0x40, 0x40, // _
;                          0x00, 0x01, 0x02, 0x04, 0x00, // `
;                          0x00, 0x00, 0x00, 0x00, 0x00, // SPACE
; 						 0x20, 0x54, 0x54, 0x54, 0x78, // a
;                          0x7F, 0x44, 0x44, 0x44, 0x38, // b
;                          0x38, 0x44, 0x44, 0x44, 0x44, // c
;                          0x38, 0x44, 0x44, 0x44, 0x7F, // d
;                          0x38, 0x54, 0x54, 0x54, 0x18, // e
;                          0x04, 0x04, 0x7E, 0x05, 0x05, // f
;                          0x08, 0x54, 0x54, 0x54, 0x3C, // g
;                          0x7F, 0x08, 0x04, 0x04, 0x78, // h
;                          0x00, 0x44, 0x7D, 0x40, 0x00, // i
;                          0x20, 0x40, 0x44, 0x3D, 0x00, // j
;                          0x7F, 0x10, 0x28, 0x44, 0x00, // k
;                          0x00, 0x41, 0x7F, 0x40, 0x00, // l
;                          0x7C, 0x04, 0x78, 0x04, 0x78, // m
;                          0x7C, 0x08, 0x04, 0x04, 0x78, // n
;                          0x38, 0x44, 0x44, 0x44, 0x38, // o
;                          0x7C, 0x14, 0x14, 0x14, 0x08, // p
;                          0x08, 0x14, 0x14, 0x14, 0x7C, // q
;                          0x00, 0x7C, 0x08, 0x04, 0x04, // r
;                          0x48, 0x54, 0x54, 0x54, 0x20, // s
;                          0x04, 0x04, 0x3F, 0x44, 0x44, // t
;                          0x3C, 0x40, 0x40, 0x20, 0x7C, // u
;                          0x1C, 0x20, 0x40, 0x20, 0x1C, // v
;                          0x3C, 0x40, 0x30, 0x40, 0x3C, // w
;                          0x44, 0x28, 0x10, 0x28, 0x44, // x
;                          0x0C, 0x50, 0x50, 0x50, 0x3C, // y
;                          0x44, 0x64, 0x54, 0x4C, 0x44, // z
;                          0x00, 0x08, 0x36, 0x41, 0x41, // {
;                          0x00, 0x00, 0x7F, 0x00, 0x00, // |
;                          0x41, 0x41, 0x36, 0x08, 0x00, // }
;                          0x02, 0x01, 0x02, 0x04, 0x02};// ~
; /////////////////////////////////////////////////////////////////////////
; #pragma data:data
; /////////////////////////////////////////////////////////////////////////
; // Purpose:       Draw a line on a graphic LCD using Bresenham's
; //                line drawing algorithm
; // Inputs:        (x1, y1) - the start coordinate
; //                (x2, y2) - the end coordinate
; //                color - ON or OFF
; // Dependencies:  glcd_pixel()
; /////////////////////////////////////////////////////////////////////////
; //#ifdef LARGE_LCD
; //void glcd_line(int x1, int y1, int x2, int y2, char color)
; //#else
; void glcd_line(char x1, char y1, char x2, char y2, char color)
; //#endif
; {
	.dbline 303
;    int        dy, dx;
;    signed char  addx=1, addy=1;
	clr R0
	inc R0
	std y+3,R0
	.dbline 303
	ldi R20,1
	.dbline 311
;    int P, diff;
; 
;    #ifdef LARGE_LCD
;    int i=0;
;    dx = abs((signed int)(x2 - x1));
;    dy = abs((signed int)(y2 - y1));
;    #else
;    char i=0;
	clr R14
	.dbline 312
;    dx = abs((signed char)(x2 - x1));
	ldd R2,y+14
	clr R3
	ldd R16,y+18
	clr R17
	sub R16,R2
	sbc R17,R3
	clr R17
	sbrc R16,7
	com R17
	xcall _abs
	movw R10,R16
	.dbline 313
;    dy = abs((signed char)(y2 - y1));
	ldd R2,y+16
	clr R3
	ldd R16,y+20
	clr R17
	sub R16,R2
	sbc R17,R3
	clr R17
	sbrc R16,7
	com R17
	xcall _abs
	movw R12,R16
	.dbline 316
;    #endif
; 
;    if(x1 > x2)
	ldd R0,y+18
	ldd R16,y+14
	cp R0,R16
	brsh L2
	.dbline 317
;       addx = -1;
	ldi R24,255
	std y+3,R24
L2:
	.dbline 318
;    if(y1 > y2)
	ldd R0,y+20
	ldd R16,y+16
	cp R0,R16
	brsh L4
	.dbline 319
;       addy = -1;
	ldi R20,255
L4:
	.dbline 321
; 
;    if(dx >= dy)
	cp R10,R12
	cpc R11,R13
	brlt L6
	.dbline 322
;    {
	.dbline 323
;       dy *= 2;
	ldi R16,2
	ldi R17,0
	movw R18,R12
	xcall empy16s
	movw R12,R16
	.dbline 324
;       P = dy - dx;
	movw R22,R12
	sub R22,R10
	sbc R23,R11
	.dbline 325
;       diff = P - dx;
	movw R2,R22
	sub R2,R10
	sbc R3,R11
	std y+2,R3
	std y+1,R2
	.dbline 327
; 
;       for(; i<=dx; ++i)
	xjmp L11
L8:
	.dbline 328
;       {
	.dbline 329
;          glcd_pixel(x1, y1, color);
	ldd R0,y+22
	std y+0,R0
	ldd R18,y+16
	ldd R16,y+14
	xcall _glcd_pixel
	.dbline 331
; 
;          if(P < 0)
	cpi R22,0
	ldi R30,0
	cpc R23,R30
	brge L12
	.dbline 332
;          {
	.dbline 333
;             P  += dy;
	add R22,R12
	adc R23,R13
	.dbline 334
;             x1 += addx;
	ldd R0,y+14
	ldd R16,y+3
	add R0,R16
	std y+14,R0
	.dbline 335
;          }
	xjmp L13
L12:
	.dbline 337
;          else
;          {
	.dbline 338
;             P  += diff;
	ldd R2,y+1
	ldd R3,y+2
	add R22,R2
	adc R23,R3
	.dbline 339
;             x1 += addx;
	ldd R0,y+14
	ldd R16,y+3
	add R0,R16
	std y+14,R0
	.dbline 340
;             y1 += addy;
	ldd R0,y+16
	add R0,R20
	std y+16,R0
	.dbline 341
;          }
L13:
	.dbline 342
L9:
	.dbline 327
	inc R14
L11:
	.dbline 327
	mov R2,R14
	clr R3
	cp R10,R2
	cpc R11,R3
	brge L8
	.dbline 343
;       }
;    }
	xjmp L7
L6:
	.dbline 345
;    else
;    {
	.dbline 346
;       dx *= 2;
	ldi R16,2
	ldi R17,0
	movw R18,R10
	xcall empy16s
	movw R10,R16
	.dbline 347
;       P = dx - dy;
	movw R22,R10
	sub R22,R12
	sbc R23,R13
	.dbline 348
;       diff = P - dy;
	movw R2,R22
	sub R2,R12
	sbc R3,R13
	std y+2,R3
	std y+1,R2
	.dbline 350
; 
;       for(; i<=dy; ++i)
	xjmp L17
L14:
	.dbline 351
;       {
	.dbline 352
;          glcd_pixel(x1, y1, color);
	ldd R0,y+22
	std y+0,R0
	ldd R18,y+16
	ldd R16,y+14
	xcall _glcd_pixel
	.dbline 354
; 
;          if(P < 0)
	cpi R22,0
	ldi R30,0
	cpc R23,R30
	brge L18
	.dbline 355
;          {
	.dbline 356
;             P  += dx;
	add R22,R10
	adc R23,R11
	.dbline 357
;             y1 += addy;
	ldd R0,y+16
	add R0,R20
	std y+16,R0
	.dbline 358
;          }
	xjmp L19
L18:
	.dbline 360
;          else
;          {
	.dbline 361
;             P  += diff;
	ldd R2,y+1
	ldd R3,y+2
	add R22,R2
	adc R23,R3
	.dbline 362
;             x1 += addx;
	ldd R0,y+14
	ldd R16,y+3
	add R0,R16
	std y+14,R0
	.dbline 363
;             y1 += addy;
	ldd R0,y+16
	add R0,R20
	std y+16,R0
	.dbline 364
;          }
L19:
	.dbline 365
L15:
	.dbline 350
	inc R14
L17:
	.dbline 350
	mov R2,R14
	clr R3
	cp R12,R2
	cpc R13,R3
	brge L14
	.dbline 366
L7:
	.dbline -2
L1:
	adiw R28,4
	xcall pop_gset5
	adiw R28,4
	.dbline 0 ; func end
	ret
	.dbsym l diff 1 I
	.dbsym r addy 20 C
	.dbsym l addx 3 C
	.dbsym r dx 10 I
	.dbsym r dy 12 I
	.dbsym r i 14 c
	.dbsym r P 22 I
	.dbsym l color 22 c
	.dbsym l y2 20 c
	.dbsym l x2 18 c
	.dbsym l y1 16 c
	.dbsym l x1 14 c
	.dbend
	.dbfunc e glcd_rect _glcd_rect fV
;           ymin -> R14
;           xmax -> R10
;           ymax -> R22
;           xmin -> R20
;              i -> R12
;          color -> y+25
;           fill -> y+23
;             y2 -> y+21
;             x2 -> y+19
;             y1 -> y+17
;             x1 -> y+15
	.even
_glcd_rect::
	xcall push_arg4
	xcall push_gset5
	sbiw R28,5
	.dbline -1
	.dbline 383
;       }
;    }
; }
; 
; 
; /////////////////////////////////////////////////////////////////////////
; // Purpose:       Draw a rectangle on a graphic LCD
; // Inputs:        (x1, y1) - the start coordinate
; //                (x2, y2) - the end coordinate
; //                fill  - YES or NO
; //                color - ON or OFF
; // Dependencies:  glcd_pixel(), glcd_line()
; /////////////////////////////////////////////////////////////////////////
; //#ifdef LARGE_LCD
; //void glcd_rect(int x1, int y1, int x2, int y2, char fill, char color)
; //#else
; void glcd_rect(char x1, char y1, char x2, char y2, char fill, char color)
; //#endif
; {
	.dbline 384
;    if(fill==1)
	ldd R24,y+23
	cpi R24,1
	brne L21
	.dbline 385
;    {
	.dbline 392
;       #ifdef LARGE_LCD
;       int i, xmin, xmax, ymin, ymax;
;       #else
;       char  i, xmin, xmax, ymin, ymax;
;       #endif
; 
;       if(x1 < x2)                            //  Find x min and max
	ldd R0,y+15
	ldd R16,y+19
	cp R0,R16
	brsh L23
	.dbline 393
;       {
	.dbline 394
;          xmin = x1;
	mov R20,R0
	.dbline 395
;          xmax = x2;
	mov R10,R16
	.dbline 396
;       }
	xjmp L24
L23:
	.dbline 398
;       else
;       {
	.dbline 399
;          xmin = x2;
	ldd R20,y+19
	.dbline 400
;          xmax = x1;
	ldd R10,y+15
	.dbline 401
;       }
L24:
	.dbline 403
; 
;       if(y1 < y2)                            // Find the y min and max
	ldd R0,y+17
	ldd R16,y+21
	cp R0,R16
	brsh L25
	.dbline 404
;       {
	.dbline 405
;          ymin = y1;
	mov R14,R0
	.dbline 406
;          ymax = y2;
	mov R22,R16
	.dbline 407
;       }
	xjmp L30
L25:
	.dbline 409
;       else
;       {
	.dbline 410
;          ymin = y2;
	ldd R14,y+21
	.dbline 411
;          ymax = y1;
	ldd R22,y+17
	.dbline 412
;       }
	.dbline 414
; 
;       for(; xmin <= xmax; ++xmin)
	xjmp L30
L27:
	.dbline 415
;       {
	.dbline 416
;          for(i=ymin; i<=ymax; ++i)
	mov R12,R14
	xjmp L34
L31:
	.dbline 417
	.dbline 418
	ldd R0,y+25
	std y+0,R0
	mov R18,R12
	mov R16,R20
	xcall _glcd_pixel
	.dbline 419
L32:
	.dbline 416
	inc R12
L34:
	.dbline 416
	cp R22,R12
	brsh L31
	.dbline 420
L28:
	.dbline 414
	inc R20
L30:
	.dbline 414
	cp R10,R20
	brsh L27
	.dbline 421
;          {
;             glcd_pixel(xmin, i, color);
;          }
;       }
;    }
	xjmp L22
L21:
	.dbline 423
	.dbline 424
	ldd R0,y+25
	std y+4,R0
	ldd R0,y+17
	std y+2,R0
	ldd R0,y+19
	std y+0,R0
	ldd R18,y+17
	ldd R16,y+15
	xcall _glcd_line
	.dbline 425
	ldd R0,y+25
	std y+4,R0
	ldd R0,y+21
	std y+2,R0
	ldd R0,y+19
	std y+0,R0
	ldd R18,y+21
	ldd R16,y+15
	xcall _glcd_line
	.dbline 426
	ldd R0,y+25
	std y+4,R0
	ldd R0,y+21
	std y+2,R0
	ldd R0,y+15
	std y+0,R0
	ldd R18,y+17
	mov R16,R0
	xcall _glcd_line
	.dbline 427
	ldd R0,y+25
	std y+4,R0
	ldd R0,y+21
	std y+2,R0
	ldd R0,y+19
	std y+0,R0
	ldd R18,y+17
	mov R16,R0
	xcall _glcd_line
	.dbline 428
L22:
	.dbline -2
L20:
	adiw R28,5
	xcall pop_gset5
	adiw R28,4
	.dbline 0 ; func end
	ret
	.dbsym r ymin 14 c
	.dbsym r xmax 10 c
	.dbsym r ymax 22 c
	.dbsym r xmin 20 c
	.dbsym r i 12 c
	.dbsym l color 25 c
	.dbsym l fill 23 c
	.dbsym l y2 21 c
	.dbsym l x2 19 c
	.dbsym l y1 17 c
	.dbsym l x1 15 c
	.dbend
	.dbfunc e glcd_bar _glcd_bar fV
;           temp -> R10
;           temp -> R10
;           temp -> y+9
;           temp -> y+9
;           diff -> y+7
;           addy -> y+13
;           addx -> y+12
;              i -> y+11
;              P -> y+5
;             c2 -> y+3
;             c1 -> y+1
;     half_width -> R12
;             dx -> R14,R15
;             dy -> R22,R23
;              j -> R20
;          color -> y+34
;          width -> y+32
;             y2 -> y+30
;             x2 -> y+28
;             y1 -> y+26
;             x1 -> y+24
	.even
_glcd_bar::
	xcall push_arg4
	xcall push_gset5
	sbiw R28,14
	.dbline -1
	.dbline 443
;    else
;    {
;       glcd_line(x1, y1, x2, y1, color);      // Draw the 4 sides
;       glcd_line(x1, y2, x2, y2, color);
;       glcd_line(x1, y1, x1, y2, color);
;       glcd_line(x2, y1, x2, y2, color);
;    }
; }
; 
; /////////////////////////////////////////////////////////////////////////
; // Purpose:       Draw a bar (wide line) on a graphic LCD
; // Inputs:        (x1, y1) - the start coordinate
; //                (x2, y2) - the end coordinate
; //                width  - The number of pixels wide
; //                color - ON or OFF
; /////////////////////////////////////////////////////////////////////////
; //#ifdef LARGE_LCD
; //void glcd_bar(int x1, int y1, int x2, int y2, char width, char color)
; //#else
; void glcd_bar(char x1, char y1, char x2, char y2, char width, char color)
; //#endif
; {
	.dbline 446
;    char         half_width;
;    signed int dy, dx;
;    signed char  addx=1, addy=1, j;
	clr R0
	inc R0
	std y+12,R0
	.dbline 446
	std y+13,R0
	.dbline 454
;    signed int P, diff, c1, c2;
; 
;    #ifdef LARGE_LCD
;    int i=0;
;    dx = abs((signed int)(x2 - x1));
;    dy = abs((signed int)(y2 - y1));
;    #else
;    char i=0;
	clr R0
	std y+11,R0
	.dbline 455
;    dx = abs((signed char)(x2 - x1));
	ldd R2,y+24
	clr R3
	ldd R16,y+28
	clr R17
	sub R16,R2
	sbc R17,R3
	clr R17
	sbrc R16,7
	com R17
	xcall _abs
	movw R14,R16
	.dbline 456
;    dy = abs((signed char)(y2 - y1));
	ldd R2,y+26
	clr R3
	ldd R16,y+30
	clr R17
	sub R16,R2
	sbc R17,R3
	clr R17
	sbrc R16,7
	com R17
	xcall _abs
	movw R22,R16
	.dbline 459
;    #endif
; 
;    half_width = width/2;
	ldd R12,y+32
	lsr R12
	.dbline 460
;    c1 = -(dx*x1 + dy*y1);
	ldd R18,y+26
	clr R19
	xcall empy16s
	movw R2,R16
	ldd R18,y+24
	clr R19
	movw R16,R14
	xcall empy16s
	movw R24,R16
	add R24,R2
	adc R25,R3
	com R24
	com R25
	subi R24,0xFF
	sbci R25,0xFF
	std y+2,R25
	std y+1,R24
	.dbline 461
;    c2 = -(dx*x2 + dy*y2);
	ldd R18,y+30
	clr R19
	movw R16,R22
	xcall empy16s
	movw R2,R16
	ldd R18,y+28
	clr R19
	movw R16,R14
	xcall empy16s
	movw R24,R16
	add R24,R2
	adc R25,R3
	com R24
	com R25
	subi R24,0xFF
	sbci R25,0xFF
	std y+4,R25
	std y+3,R24
	.dbline 463
; 
;    if(x1 > x2)
	ldd R0,y+28
	ldd R16,y+24
	cp R0,R16
	brsh L36
	.dbline 464
;    {
	.dbline 466
;       signed int temp;
;       temp = c1;
	ldd R2,y+1
	ldd R3,y+2
	std y+10,R3
	std y+9,R2
	.dbline 467
;       c1 = c2;
	ldd R2,y+3
	ldd R3,y+4
	std y+2,R3
	std y+1,R2
	.dbline 468
;       c2 = temp;
	ldd R2,y+9
	ldd R3,y+10
	std y+4,R3
	std y+3,R2
	.dbline 469
;       addx = -1;
	ldi R24,255
	std y+12,R24
	.dbline 470
;    }
L36:
	.dbline 471
;    if(y1 > y2)
	ldd R0,y+30
	ldd R16,y+26
	cp R0,R16
	brsh L38
	.dbline 472
;    {
	.dbline 474
;       signed int temp;
;       temp = c1;
	ldd R2,y+1
	ldd R3,y+2
	std y+10,R3
	std y+9,R2
	.dbline 475
;       c1 = c2;
	ldd R2,y+3
	ldd R3,y+4
	std y+2,R3
	std y+1,R2
	.dbline 476
;       c2 = temp;
	ldd R2,y+9
	ldd R3,y+10
	std y+4,R3
	std y+3,R2
	.dbline 477
;       addy = -1;
	ldi R24,255
	std y+13,R24
	.dbline 478
;    }
L38:
	.dbline 480
; 
;    if(dx >= dy)
	cp R14,R22
	cpc R15,R23
	brge X0
	xjmp L40
X0:
	.dbline 481
;    {
	.dbline 482
;       P = 2*dy - dx;
	ldi R16,2
	ldi R17,0
	movw R18,R22
	xcall empy16s
	movw R2,R16
	sub R2,R14
	sbc R3,R15
	std y+6,R3
	std y+5,R2
	.dbline 483
;       diff = P - dx;
	sub R2,R14
	sbc R3,R15
	std y+8,R3
	std y+7,R2
	.dbline 485
; 
;       for(i=0; i<=dx; ++i)
	clr R0
	std y+11,R0
	xjmp L45
L42:
	.dbline 486
;       {
	.dbline 487
;          for(j=-half_width; j<half_width+width%2; ++j)
	mov R20,R12
	neg R20
	xjmp L49
L46:
	.dbline 488
;          {
	.dbline 495
;             #ifdef LARGE_LCD
;             int temp;
;             #else
;             char temp;
;             #endif
; 
;             temp = dx*x1+dy*(y1+j);    // Use more RAM to increase speed
	mov R2,R20
	clr R3
	sbrc R2,7
	com R3
	ldd R18,y+26
	clr R19
	add R18,R2
	adc R19,R3
	movw R16,R22
	xcall empy16s
	movw R2,R16
	ldd R18,y+24
	clr R19
	movw R16,R14
	xcall empy16s
	mov R10,R16
	add R10,R2
	adc R11,R3
	.dbline 496
;             if(temp+c1 >= 0 && temp+c2 <=0)
	ldd R2,y+1
	ldd R3,y+2
	mov R24,R10
	clr R25
	add R24,R2
	adc R25,R3
	cpi R24,0
	ldi R30,0
	cpc R25,R30
	brlt L50
	ldd R2,y+3
	ldd R3,y+4
	mov R4,R10
	clr R5
	add R4,R2
	adc R5,R3
	clr R2
	clr R3
	cp R2,R4
	cpc R3,R5
	brlt L50
	.dbline 497
;                glcd_pixel(x1, y1+j, color);
	ldd R0,y+34
	std y+0,R0
	ldd R18,y+26
	add R18,R20
	ldd R16,y+24
	xcall _glcd_pixel
L50:
	.dbline 498
L47:
	.dbline 487
	inc R20
L49:
	.dbline 487
	ldi R17,2
	ldd R16,y+32
	xcall mod8u
	mov R2,R12
	add R2,R16
	cp R20,R2
	brlo L46
	.dbline 499
;          }
;          if(P < 0)
	ldd R24,y+5
	ldd R25,y+6
	cpi R24,0
	ldi R30,0
	cpc R25,R30
	brge L52
	.dbline 500
;          {
	.dbline 501
;             P  += 2*dy;
	ldi R16,2
	ldi R17,0
	movw R18,R22
	xcall empy16s
	ldd R2,y+5
	ldd R3,y+6
	add R2,R16
	adc R3,R17
	std y+6,R3
	std y+5,R2
	.dbline 502
;             x1 += addx;
	ldd R0,y+24
	ldd R16,y+12
	add R0,R16
	std y+24,R0
	.dbline 503
;          }
	xjmp L53
L52:
	.dbline 505
;          else
;          {
	.dbline 506
;             P  += diff;
	ldd R2,y+7
	ldd R3,y+8
	ldd R4,y+5
	ldd R5,y+6
	add R4,R2
	adc R5,R3
	std y+6,R5
	std y+5,R4
	.dbline 507
;             x1 += addx;
	ldd R0,y+24
	ldd R16,y+12
	add R0,R16
	std y+24,R0
	.dbline 508
;             y1 += addy;
	ldd R0,y+26
	ldd R16,y+13
	add R0,R16
	std y+26,R0
	.dbline 509
;          }
L53:
	.dbline 510
L43:
	.dbline 485
	ldd R0,y+11
	inc R0
	std y+11,R0
L45:
	.dbline 485
	ldd R2,y+11
	clr R3
	cp R14,R2
	cpc R15,R3
	brlt X1
	xjmp L42
X1:
	.dbline 511
;       }
;    }
	xjmp L41
L40:
	.dbline 513
;    else
;    {
	.dbline 514
;       P = 2*dx - dy;
	ldi R16,2
	ldi R17,0
	movw R18,R14
	xcall empy16s
	movw R2,R16
	sub R2,R22
	sbc R3,R23
	std y+6,R3
	std y+5,R2
	.dbline 515
;       diff = P - dy;
	sub R2,R22
	sbc R3,R23
	std y+8,R3
	std y+7,R2
	.dbline 517
; 
;       for(i=0; i<=dy; ++i)
	clr R0
	std y+11,R0
	xjmp L57
L54:
	.dbline 518
;       {
	.dbline 519
;          if(P < 0)
	ldd R24,y+5
	ldd R25,y+6
	cpi R24,0
	ldi R30,0
	cpc R25,R30
	brge L58
	.dbline 520
;          {
	.dbline 521
;             P  += 2*dx;
	ldi R16,2
	ldi R17,0
	movw R18,R14
	xcall empy16s
	ldd R2,y+5
	ldd R3,y+6
	add R2,R16
	adc R3,R17
	std y+6,R3
	std y+5,R2
	.dbline 522
;             y1 += addy;
	ldd R0,y+26
	ldd R16,y+13
	add R0,R16
	std y+26,R0
	.dbline 523
;          }
	xjmp L59
L58:
	.dbline 525
;          else
;          {
	.dbline 526
;             P  += diff;
	ldd R2,y+7
	ldd R3,y+8
	ldd R4,y+5
	ldd R5,y+6
	add R4,R2
	adc R5,R3
	std y+6,R5
	std y+5,R4
	.dbline 527
;             x1 += addx;
	ldd R0,y+24
	ldd R16,y+12
	add R0,R16
	std y+24,R0
	.dbline 528
;             y1 += addy;
	ldd R0,y+26
	ldd R16,y+13
	add R0,R16
	std y+26,R0
	.dbline 529
;          }
L59:
	.dbline 530
;          for(j=-half_width; j<half_width+width%2; ++j)
	mov R20,R12
	neg R20
	xjmp L63
L60:
	.dbline 531
;          {
	.dbline 538
;             #ifdef LARGE_LCD
;             int temp;
;             #else
;             char temp;
;             #endif
; 
;             temp = dx*x1+dy*(y1+j);    // Use more RAM to increase speed
	mov R2,R20
	clr R3
	sbrc R2,7
	com R3
	ldd R18,y+26
	clr R19
	add R18,R2
	adc R19,R3
	movw R16,R22
	xcall empy16s
	movw R2,R16
	ldd R18,y+24
	clr R19
	movw R16,R14
	xcall empy16s
	mov R10,R16
	add R10,R2
	adc R11,R3
	.dbline 539
;             if(temp+c1 >= 0 && temp+c2 <=0)
	ldd R2,y+1
	ldd R3,y+2
	mov R24,R10
	clr R25
	add R24,R2
	adc R25,R3
	cpi R24,0
	ldi R30,0
	cpc R25,R30
	brlt L64
	ldd R2,y+3
	ldd R3,y+4
	mov R4,R10
	clr R5
	add R4,R2
	adc R5,R3
	clr R2
	clr R3
	cp R2,R4
	cpc R3,R5
	brlt L64
	.dbline 540
;                glcd_pixel(x1+j, y1, color);
	ldd R0,y+34
	std y+0,R0
	ldd R18,y+26
	ldd R16,y+24
	add R16,R20
	xcall _glcd_pixel
L64:
	.dbline 541
L61:
	.dbline 530
	inc R20
L63:
	.dbline 530
	ldi R17,2
	ldd R16,y+32
	xcall mod8u
	mov R2,R12
	add R2,R16
	cp R20,R2
	brlo L60
	.dbline 542
L55:
	.dbline 517
	ldd R0,y+11
	inc R0
	std y+11,R0
L57:
	.dbline 517
	ldd R2,y+11
	clr R3
	cp R22,R2
	cpc R23,R3
	brlt X2
	xjmp L54
X2:
	.dbline 543
L41:
	.dbline -2
L35:
	adiw R28,14
	xcall pop_gset5
	adiw R28,4
	.dbline 0 ; func end
	ret
	.dbsym r temp 10 c
	.dbsym r temp 10 c
	.dbsym l temp 9 I
	.dbsym l temp 9 I
	.dbsym l diff 7 I
	.dbsym l addy 13 C
	.dbsym l addx 12 C
	.dbsym l i 11 c
	.dbsym l P 5 I
	.dbsym l c2 3 I
	.dbsym l c1 1 I
	.dbsym r half_width 12 c
	.dbsym r dx 14 I
	.dbsym r dy 22 I
	.dbsym r j 20 C
	.dbsym l color 34 c
	.dbsym l width 32 c
	.dbsym l y2 30 c
	.dbsym l x2 28 c
	.dbsym l y1 26 c
	.dbsym l x1 24 c
	.dbend
	.dbfunc e glcd_circle _glcd_circle fV
;              P -> R20
;              b -> R22
;              a -> R10
;          color -> R12
;           fill -> R14
;         radius -> y+19
;              y -> y+17
;              x -> y+15
	.even
_glcd_circle::
	xcall push_arg4
	xcall push_gset5
	sbiw R28,5
	ldd R14,y+21
	ldd R12,y+23
	.dbline -1
	.dbline 559
;          }
;       }
;    }
; }
; 
; 
; /////////////////////////////////////////////////////////////////////////
; // Purpose:       Draw a circle on a graphic LCD
; // Inputs:        (x,y) - the center of the circle
; //                radius - the radius of the circle
; //                fill - YES or NO
; //                color - ON or OFF
; /////////////////////////////////////////////////////////////////////////
; //#ifdef LARGE_LCD
; //void glcd_circle(int x, int y, int radius, char fill, char color)
; //#else
; void glcd_circle(char x, char y, char radius, char fill, char color)
; //#endif
; {
	.dbline 566
;    #ifdef LARGE_LCD
;    signed int a, b, P;
;    #else
;    signed char  a, b, P;
;    #endif
; 
;    a = 0;
	clr R10
	.dbline 567
;    b = radius;
	ldd R22,y+19
	.dbline 568
;    P = 1 - radius;
	ldi R20,1
	mov R0,R22
	sub R20,R22
L67:
	.dbline 571
; 
;    do
;    {
	.dbline 572
;       if(fill==1)
	mov R24,R14
	cpi R24,1
	brne L70
	.dbline 573
;       {
	.dbline 574
;          glcd_line(x-a, y+b, x+a, y+b, color);
	std y+4,R12
	ldd R2,y+17
	add R2,R22
	std y+2,R2
	ldd R4,y+15
	add R4,R10
	std y+0,R4
	mov R18,R2
	ldd R16,y+15
	sub R16,R10
	xcall _glcd_line
	.dbline 575
;          glcd_line(x-a, y-b, x+a, y-b, color);
	std y+4,R12
	ldd R2,y+17
	sub R2,R22
	std y+2,R2
	ldd R4,y+15
	add R4,R10
	std y+0,R4
	mov R18,R2
	ldd R16,y+15
	sub R16,R10
	xcall _glcd_line
	.dbline 576
;          glcd_line(x-b, y+a, x+b, y+a, color);
	std y+4,R12
	ldd R2,y+17
	add R2,R10
	std y+2,R2
	ldd R4,y+15
	add R4,R22
	std y+0,R4
	mov R18,R2
	ldd R16,y+15
	sub R16,R22
	xcall _glcd_line
	.dbline 577
;          glcd_line(x-b, y-a, x+b, y-a, color);
	std y+4,R12
	ldd R2,y+17
	sub R2,R10
	std y+2,R2
	ldd R4,y+15
	add R4,R22
	std y+0,R4
	mov R18,R2
	ldd R16,y+15
	sub R16,R22
	xcall _glcd_line
	.dbline 578
;       }
	xjmp L71
L70:
	.dbline 580
;       else
;       {
	.dbline 581
;          glcd_pixel(a+x, b+y, color);
	std y+0,R12
	mov R18,R22
	ldd R0,y+17
	add R18,R0
	mov R16,R10
	ldd R0,y+15
	add R16,R0
	xcall _glcd_pixel
	.dbline 582
;          glcd_pixel(b+x, a+y, color);
	std y+0,R12
	mov R18,R10
	ldd R0,y+17
	add R18,R0
	mov R16,R22
	ldd R0,y+15
	add R16,R0
	xcall _glcd_pixel
	.dbline 583
;          glcd_pixel(x-a, b+y, color);
	std y+0,R12
	mov R18,R22
	ldd R0,y+17
	add R18,R0
	ldd R16,y+15
	sub R16,R10
	xcall _glcd_pixel
	.dbline 584
;          glcd_pixel(x-b, a+y, color);
	std y+0,R12
	mov R18,R10
	ldd R0,y+17
	add R18,R0
	ldd R16,y+15
	sub R16,R22
	xcall _glcd_pixel
	.dbline 585
;          glcd_pixel(b+x, y-a, color);
	std y+0,R12
	ldd R18,y+17
	sub R18,R10
	mov R16,R22
	ldd R0,y+15
	add R16,R0
	xcall _glcd_pixel
	.dbline 586
;          glcd_pixel(a+x, y-b, color);
	std y+0,R12
	ldd R18,y+17
	sub R18,R22
	mov R16,R10
	ldd R0,y+15
	add R16,R0
	xcall _glcd_pixel
	.dbline 587
;          glcd_pixel(x-a, y-b, color);
	std y+0,R12
	ldd R18,y+17
	sub R18,R22
	ldd R16,y+15
	sub R16,R10
	xcall _glcd_pixel
	.dbline 588
;          glcd_pixel(x-b, y-a, color);
	std y+0,R12
	ldd R18,y+17
	sub R18,R10
	ldd R16,y+15
	sub R16,R22
	xcall _glcd_pixel
	.dbline 589
;       }
L71:
	.dbline 591
; 
;       if(P < 0)
	cpi R20,0
	brge L72
	.dbline 592
;          P += 3 + 2 * a++;
	mov R2,R10
	clr R3
	sbrc R2,7
	com R3
	mov R24,R2
	subi R24,255    ; addi 1
	mov R10,R24
	ldi R16,2
	ldi R17,0
	movw R18,R2
	xcall empy16s
	movw R24,R16
	adiw R24,3
	mov R2,R20
	clr R3
	sbrc R2,7
	com R3
	add R2,R24
	adc R3,R25
	mov R20,R2
	xjmp L73
L72:
	.dbline 594
;       else
;          P += 5 + 2 * (a++ - b--);
	mov R2,R10
	clr R3
	sbrc R2,7
	com R3
	mov R24,R2
	subi R24,255    ; addi 1
	mov R10,R24
	mov R4,R22
	clr R5
	sbrc R4,7
	com R5
	mov R22,R4
	subi R22,1
	mov R18,R2
	clr R19
	sbrc R18,7
	com R19
	sub R18,R4
	sbc R19,R5
	ldi R16,2
	ldi R17,0
	xcall empy16s
	movw R24,R16
	adiw R24,5
	mov R2,R20
	clr R3
	sbrc R2,7
	com R3
	add R2,R24
	adc R3,R25
	mov R20,R2
L73:
	.dbline 595
L68:
	.dbline 595
;     } while(a <= b);
	cp R22,R10
	brlt X3
	xjmp L67
X3:
	.dbline -2
L66:
	adiw R28,5
	xcall pop_gset5
	adiw R28,4
	.dbline 0 ; func end
	ret
	.dbsym r P 20 C
	.dbsym r b 22 C
	.dbsym r a 10 C
	.dbsym r color 12 c
	.dbsym r fill 14 c
	.dbsym l radius 19 c
	.dbsym l y 17 c
	.dbsym l x 15 c
	.dbend
	.dbfunc e glcd_text35 _glcd_text35 fV
;              i -> R20,R21
;              l -> R14,R15
;      pixelData -> y+1
;              j -> R10,R11
;              k -> R12,R13
;          color -> R22
;        textptr -> y+20
;              y -> y+18
;              x -> y+16
	.even
_glcd_text35::
	xcall push_arg4
	xcall push_gset5
	sbiw R28,6
	ldd R22,y+22
	.dbline -1
	.dbline 600
; }
; 
; 
; void glcd_text35(char x, char y, char* textptr, char color)
; {
	.dbline 604
;    int i, j, k, l;                           // Loop counters
;    char pixelData[5];                     // Stores character data
; 
;    for(i=0; textptr[i] != '\0'; ++i, ++x) // Loop through the passed string
	clr R20
	clr R21
	xjmp L78
L75:
	.dbline 605
;    {
	.dbline 606
;       if((textptr[i] >= ' ') && (textptr[i] <= '~'))
	movw R30,R20
	ldd R0,y+20
	ldd R1,y+21
	add R30,R0
	adc R31,R1
	ldd R2,z+0
	clr R3
	mov R24,R2
	cpi R24,32
	brlo L79
	ldi R24,126
	cp R24,R2
	brlo L79
	.dbline 607
;          for(l=0;l<5;l++)
	clr R14
	clr R15
L81:
	.dbline 608
	movw R30,R20
	ldd R0,y+20
	ldd R1,y+21
	add R30,R0
	adc R31,R1
	ldd R2,z+0
	ldi R24,5
	mul R24,R2
	movw R2,R0
	ldi R24,<_TEXT35-160
	ldi R25,>_TEXT35-160
	add R2,R24
	adc R3,R25
	movw R30,R14
	add R30,R2
	adc R31,R3
	lpm R30,Z
	movw R24,R28
	adiw R24,1
	movw R26,R14
	add R26,R24
	adc R27,R25
	st x,R30
L82:
	.dbline 607
	movw R24,R14
	adiw R24,1
	movw R14,R24
	.dbline 607
	cpi R24,5
	ldi R30,0
	cpc R25,R30
	brlt L81
	xjmp L80
L79:
	.dbline 610
; 		   pixelData[l]=TEXT35[textptr[i]-' '][l];
;       else
;          for(l=0;l<5;l++)
	clr R14
	clr R15
L86:
	.dbline 611
	ldi R24,<_TEXT35
	ldi R25,>_TEXT35
	movw R30,R14
	add R30,R24
	adc R31,R25
	lpm R30,Z
	movw R24,R28
	adiw R24,1
	movw R26,R14
	add R26,R24
	adc R27,R25
	st x,R30
L87:
	.dbline 610
	movw R24,R14
	adiw R24,1
	movw R14,R24
	.dbline 610
	cpi R24,5
	ldi R30,0
	cpc R25,R30
	brlt L86
L80:
	.dbline 613
; 		   pixelData[l]=TEXT35[0][l]; // Default to space
; 
;       if(x+3 >= GLCD_WIDTH)          // Performs character wrapping
	ldd R24,y+16
	subi R24,253    ; addi 3
	cpi R24,128
	brlo L90
	.dbline 614
;       {
	.dbline 615
;          x = 0;                           // Set x at far left position
	clr R0
	std y+16,R0
	.dbline 616
;          y += 5 + 1;                      // Set y at next position down
	ldd R24,y+18
	subi R24,250    ; addi 6
	std y+18,R24
	.dbline 617
;       }
L90:
	.dbline 618
;       for(j=3; j>0; j--, x++)             // Loop through character byte data
	ldi R24,3
	ldi R25,0
	movw R10,R24
L92:
	.dbline 619
;       {
	.dbline 620
;          for(k=0; k<5; k++)               // Loop through the vertical pixels
	clr R12
	clr R13
L96:
	.dbline 621
;          {
	.dbline 622
;             if(CHKBIT(pixelData[k], j)) // Check if the pixel should be set
	ldi R16,1
	ldi R17,0
	movw R18,R10
	xcall lsl16
	movw R24,R28
	adiw R24,1
	movw R30,R12
	add R30,R24
	adc R31,R25
	ldd R2,z+0
	clr R3
	and R2,R16
	and R3,R17
	tst R2
	brne X4
	tst R3
	breq L100
X4:
	.dbline 623
;             {
	.dbline 624
;                glcd_pixel(x, y+k, color); // Draws the pixel
	std y+0,R22
	ldd R18,y+18
	clr R19
	add R18,R12
	adc R19,R13
	ldd R16,y+16
	xcall _glcd_pixel
	.dbline 625
;             }
L100:
	.dbline 626
L97:
	.dbline 620
	movw R24,R12
	adiw R24,1
	movw R12,R24
	.dbline 620
	cpi R24,5
	ldi R30,0
	cpc R25,R30
	brlt L96
	.dbline 627
L93:
	.dbline 618
	movw R24,R10
	sbiw R24,1
	movw R10,R24
	ldd R0,y+16
	inc R0
	std y+16,R0
	.dbline 618
	clr R2
	clr R3
	cp R2,R24
	cpc R3,R25
	brlt L92
	.dbline 628
L76:
	.dbline 604
	subi R20,255  ; offset = 1
	sbci R21,255
	ldd R0,y+16
	inc R0
	std y+16,R0
L78:
	.dbline 604
	movw R30,R20
	ldd R0,y+20
	ldd R1,y+21
	add R30,R0
	adc R31,R1
	ldd R2,z+0
	tst R2
	breq X5
	xjmp L75
X5:
	.dbline -2
L74:
	adiw R28,6
	xcall pop_gset5
	adiw R28,4
	.dbline 0 ; func end
	ret
	.dbsym r i 20 I
	.dbsym r l 14 I
	.dbsym l pixelData 1 A[5:5]c
	.dbsym r j 10 I
	.dbsym r k 12 I
	.dbsym r color 22 c
	.dbsym l textptr 20 pc
	.dbsym l y 18 c
	.dbsym l x 16 c
	.dbend
	.dbfunc e glcd_text57 _glcd_text57 fV
;              n -> R14
;      pixelData -> y+1
;              j -> R22
;              k -> R12
;              l -> R20
;              m -> R10
;          color -> y+26
;           size -> y+24
;        textptr -> y+22
;              y -> y+20
;              x -> y+18
	.even
_glcd_text57::
	xcall push_arg4
	xcall push_gset5
	sbiw R28,8
	.dbline -1
	.dbline 639
;          }
;       }
;    }
; }
; 
; /////////////////////////////////////////////////////////////////////////
; // Purpose:       Write text on a graphic LCD
; // Inputs:        (x,y) - The upper left coordinate of the first letter
; //                textptr - A pointer to an array of text to display
; //                size - The size of the text: 1 = 5x7, 2 = 10x14, ...
; //                color - ON or OFF
; /////////////////////////////////////////////////////////////////////////
; void glcd_text57(char x, char y, char* textptr, char size, char color)
; {
	.dbline 643
;    char j, k, l, m, n;                       // Loop counters
;    char pixelData[5];                     // Stores character data
; 
;    for(; *textptr != '\0'; ++textptr, ++x)// Loop through the passed string
	xjmp L106
L103:
	.dbline 644
;    {
	.dbline 645
;       if(*textptr < 'S') // Checks if the letter is in the first font array
	ldd R30,y+22
	ldd R31,y+23
	ldd R24,z+0
	cpi R24,83
	brsh L107
	.dbline 646
	clr R14
	xjmp L112
L109:
	.dbline 646
	ldd R30,y+22
	ldd R31,y+23
	ldd R2,z+0
	ldi R24,5
	mul R24,R2
	movw R2,R0
	ldi R24,<_FONT-160
	ldi R25,>_FONT-160
	add R2,R24
	adc R3,R25
	mov R30,R14
	clr R31
	add R30,R2
	adc R31,R3
	lpm R30,Z
	movw R24,R28
	adiw R24,1
	mov R26,R14
	clr R27
	add R26,R24
	adc R27,R25
	st x,R30
L110:
	.dbline 646
	inc R14
L112:
	.dbline 646
;          for(n=0;n<5;n++)pixelData[n]=FONT[*textptr - ' '][n];
	mov R24,R14
	cpi R24,5
	brlo L109
	xjmp L108
L107:
	.dbline 647
;       else if(*textptr <= '~') // Check if the letter is in the second font array
	ldi R24,126
	ldd R30,y+22
	ldd R31,y+23
	ldd R2,z+0
	cp R24,R2
	brlo L114
	.dbline 648
	clr R14
	xjmp L119
L116:
	.dbline 648
	ldd R30,y+22
	ldd R31,y+23
	ldd R2,z+0
	ldi R24,5
	mul R24,R2
	movw R2,R0
	ldi R24,<_FONT2-415
	ldi R25,>_FONT2-415
	add R2,R24
	adc R3,R25
	mov R30,R14
	clr R31
	add R30,R2
	adc R31,R3
	lpm R30,Z
	movw R24,R28
	adiw R24,1
	mov R26,R14
	clr R27
	add R26,R24
	adc R27,R25
	st x,R30
L117:
	.dbline 648
	inc R14
L119:
	.dbline 648
;          for(n=0;n<5;n++)pixelData[n]=FONT2[*textptr - 'S'][n];
	mov R24,R14
	cpi R24,5
	brlo L116
	xjmp L115
L114:
	.dbline 650
	clr R14
	xjmp L124
L121:
	.dbline 650
	ldi R24,<_FONT
	ldi R25,>_FONT
	mov R30,R14
	clr R31
	add R30,R24
	adc R31,R25
	lpm R30,Z
	movw R24,R28
	adiw R24,1
	mov R26,R14
	clr R27
	add R26,R24
	adc R27,R25
	st x,R30
L122:
	.dbline 650
	inc R14
L124:
	.dbline 650
;       else
;          for(n=0;n<5;n++)pixelData[n]=FONT[0][n];   // Default to space
	mov R24,R14
	cpi R24,5
	brlo L121
L115:
L108:
	.dbline 653
; 
;       // Handles newline and carriage returns
;       switch(*textptr)
	ldd R30,y+22
	ldd R31,y+23
	ldd R2,z+0
	clr R3
	std y+7,R3
	std y+6,R2
	movw R24,R2
	cpi R24,10
	ldi R30,0
	cpc R25,R30
	breq L128
	cpi R24,13
	ldi R30,0
	cpc R25,R30
	breq L129
	xjmp L125
X6:
	.dbline 654
;       {
L128:
	.dbline 656
;          case '\n':
;             y += 7*size + 1;
	ldi R24,7
	ldd R0,y+24
	mul R24,R0
	mov R24,R0
	subi R24,255    ; addi 1
	ldd R0,y+20
	add R0,R24
	std y+20,R0
	.dbline 657
;             continue;
	xjmp L104
L129:
	.dbline 659
;          case '\r':
;             x = 0;
	clr R0
	std y+18,R0
	.dbline 660
;             continue;
	xjmp L104
L125:
	.dbline 663
;       }
; 
;       if(x+5*size >= GLCD_WIDTH)          // Performs character wrapping
	ldi R24,5
	ldd R0,y+24
	mul R24,R0
	ldd R24,y+18
	add R24,R0
	cpi R24,128
	brlo L130
	.dbline 664
;       {
	.dbline 665
;          x = 0;                           // Set x at far left position
	clr R0
	std y+18,R0
	.dbline 666
;          y += 7*size + 1;                 // Set y at next position down
	ldi R24,7
	ldd R0,y+24
	mul R24,R0
	mov R24,R0
	subi R24,255    ; addi 1
	ldd R0,y+20
	add R0,R24
	std y+20,R0
	.dbline 667
;       }
L130:
	.dbline 668
;       for(j=0; j<5; ++j, x+=size)         // Loop through character byte data
	clr R22
	xjmp L135
L132:
	.dbline 669
;       {
	.dbline 670
;          for(k=0; k < 7; ++k)             // Loop through the vertical pixels
	clr R12
	xjmp L139
L136:
	.dbline 671
;          {
	.dbline 672
;             if(CHKBIT(pixelData[j], k)) // Check if the pixel should be set
	ldi R16,1
	mov R17,R12
	xcall lsl8
	movw R24,R28
	adiw R24,1
	mov R30,R22
	clr R31
	add R30,R24
	adc R31,R25
	ldd R2,z+0
	and R2,R16
	breq L140
	.dbline 673
;             {
	.dbline 674
;                for(l=0; l < size; ++l)    // These two loops change the
	clr R20
	xjmp L145
L142:
	.dbline 675
;                {                          // character's size
	.dbline 676
;                   for(m=0; m < size; ++m)
	clr R10
	xjmp L149
L146:
	.dbline 677
	.dbline 678
	ldd R0,y+26
	std y+0,R0
	ldd R0,y+24
	mul R12,R0
	ldd R18,y+20
	add R18,R0
	add R18,R20
	ldd R16,y+18
	add R16,R10
	xcall _glcd_pixel
	.dbline 679
L147:
	.dbline 676
	inc R10
L149:
	.dbline 676
	ldd R0,y+24
	cp R10,R0
	brlo L146
	.dbline 680
L143:
	.dbline 674
	inc R20
L145:
	.dbline 674
	ldd R0,y+24
	cp R20,R0
	brlo L142
	.dbline 681
;                   {
;                      glcd_pixel(x+m, y+k*size+l, color); // Draws the pixel
;                   }
;                }
;             }
L140:
	.dbline 682
L137:
	.dbline 670
	inc R12
L139:
	.dbline 670
	mov R24,R12
	cpi R24,7
	brlo L136
	.dbline 683
L133:
	.dbline 668
	inc R22
	ldd R0,y+18
	ldd R16,y+24
	add R0,R16
	std y+18,R0
L135:
	.dbline 668
	cpi R22,5
	brlo L132
	.dbline 684
L104:
	.dbline 643
	ldd R24,y+22
	ldd R25,y+23
	adiw R24,1
	std y+23,R25
	std y+22,R24
	ldd R0,y+18
	inc R0
	std y+18,R0
L106:
	.dbline 643
	ldd R30,y+22
	ldd R31,y+23
	ldd R2,z+0
	tst R2
	breq X7
	xjmp L103
X7:
	.dbline -2
L102:
	adiw R28,8
	xcall pop_gset5
	adiw R28,4
	.dbline 0 ; func end
	ret
	.dbsym r n 14 c
	.dbsym l pixelData 1 A[5:5]c
	.dbsym r j 22 c
	.dbsym r k 12 c
	.dbsym r l 20 c
	.dbsym r m 10 c
	.dbsym l color 26 c
	.dbsym l size 24 c
	.dbsym l textptr 22 pc
	.dbsym l y 20 c
	.dbsym l x 18 c
	.dbend
